target datalayout = "e-m:e-p270:32:32-p271:32:32-p272:64:64-i64:64-i128:128-f80:128-n8:16:32:64-S128"
target triple = "x86_64-pc-linux-gnu"

%struct.slurm_conf_t = type { i64, ptr, i16, ptr, ptr, ptr, ptr, ptr, i16, ptr, ptr, ptr, ptr, ptr, ptr, ptr, i16, ptr, ptr, ptr, ptr, i16, ptr, ptr, ptr, i64, ptr, ptr, ptr, ptr, i16, ptr, ptr, i16, i32, ptr, i32, ptr, i32, i32, ptr, ptr, i64, i64, ptr, i16, i16, ptr, i32, i32, ptr, i32, ptr, i32, i16, i16, i16, ptr, i16, i16, ptr, ptr, i32, i16, i16, ptr, i32, i16, ptr, ptr, ptr, ptr, i16, ptr, ptr, ptr, ptr, i32, ptr, ptr, ptr, ptr, i16, i16, ptr, i32, i32, i32, i16, i16, ptr, ptr, i16, ptr, ptr, i32, i32, i32, i32, i32, i64, i32, i32, i16, ptr, ptr, i32, ptr, ptr, ptr, i16, i32, ptr, ptr, i16, ptr, ptr, i32, i16, ptr, ptr, ptr, ptr, i32, i32, i16, i16, i32, ptr, i16, ptr, i32, i32, i32, i32, i32, i32, ptr, i16, ptr, ptr, i32, i16, ptr, i32, i16, i16, ptr, ptr, ptr, i16, ptr, ptr, ptr, ptr, i16, i16, ptr, i16, ptr, i16, ptr, i16, ptr, i16, ptr, ptr, ptr, ptr, i16, ptr, ptr, ptr, i32, ptr, i32, ptr, ptr, i16, ptr, ptr, i32, i16, ptr, ptr, i16, i16, ptr, i16, ptr, ptr, ptr, i32, ptr, i16, i16, ptr, ptr, ptr, ptr, ptr, ptr, ptr, ptr, i16, i32, i16, ptr, ptr, ptr, ptr, i32, ptr, ptr, ptr, i16, ptr, ptr, ptr, i16, ptr, i16, ptr, i16, i16, ptr }
%struct.http_parser_settings = type { ptr, ptr, ptr, ptr, ptr, ptr, ptr, ptr, ptr, ptr }
%struct.http_context_t = type { i32, ptr, ptr, ptr, ptr, ptr }
%struct.request_t = type { i32, ptr, ptr, ptr, ptr, i32, i8, i32, ptr, ptr, i64, i64, ptr, ptr, ptr }
%struct.http_parser = type { i32, i32, i64, i16, i16, i32, ptr }

@slurm_conf = external global %struct.slurm_conf_t, align 8
@parse_http.settings = internal constant %struct.http_parser_settings { ptr @_on_message_begin, ptr @_on_url, ptr @_on_status, ptr @_on_header_field, ptr @_on_header_value, ptr @_on_headers_complete, ptr @_on_body, ptr @_on_message_complete, ptr @_on_chunk_header, ptr @_on_chunk_complete }, align 8
@.str.8 = private unnamed_addr constant [50 x i8] c"NET: %s: [%s] Rejecting continued HTTP connection\00", align 1
@__func__.parse_http = private unnamed_addr constant [11 x i8] c"parse_http\00", align 1
@.str.9 = private unnamed_addr constant [39 x i8] c"NET: %s: [%s] Accepted HTTP connection\00", align 1
@.str.10 = private unnamed_addr constant [35 x i8] c"NET: %s: [%s] parsed %zu/%zu bytes\00", align 1
@.str.11 = private unnamed_addr constant [38 x i8] c"%s: [%s] unexpected HTTP error %s: %s\00", align 1
@.str.12 = private unnamed_addr constant [51 x i8] c"NET: %s: [%s] HTTP Upgrade currently not supported\00", align 1

; Function Attrs: nounwind uwtable
define dso_local i32 @parse_http(ptr noundef %0, ptr noundef %1) #0 {
  %3 = alloca i32, align 4
  %4 = alloca ptr, align 8
  %5 = alloca ptr, align 8
  %6 = alloca ptr, align 8
  %7 = alloca i32, align 4
  %8 = alloca ptr, align 8
  %9 = alloca ptr, align 8
  %10 = alloca i64, align 8
  %11 = alloca i64, align 8
  %12 = alloca ptr, align 8
  %13 = alloca i32, align 4
  store ptr %0, ptr %4, align 8
  store ptr %1, ptr %5, align 8
  call void @llvm.lifetime.start.p0(i64 8, ptr %6) #8
  %14 = load ptr, ptr %5, align 8
  store ptr %14, ptr %6, align 8
  call void @llvm.lifetime.start.p0(i64 4, ptr %7) #8
  store i32 0, ptr %7, align 4
  call void @llvm.lifetime.start.p0(i64 8, ptr %8) #8
  %15 = load ptr, ptr %6, align 8
  %16 = getelementptr inbounds nuw %struct.http_context_t, ptr %15, i32 0, i32 5
  %17 = load ptr, ptr %16, align 8
  store ptr %17, ptr %8, align 8
  call void @llvm.lifetime.start.p0(i64 8, ptr %9) #8
  %18 = load ptr, ptr %6, align 8
  %19 = getelementptr inbounds nuw %struct.http_context_t, ptr %18, i32 0, i32 4
  %20 = load ptr, ptr %19, align 8
  store ptr %20, ptr %9, align 8
  call void @llvm.lifetime.start.p0(i64 8, ptr %10) #8
  call void @llvm.lifetime.start.p0(i64 8, ptr %11) #8
  call void @llvm.lifetime.start.p0(i64 8, ptr %12) #8
  %21 = load ptr, ptr %8, align 8
  %22 = icmp ne ptr %21, null
  br i1 %22, label %55, label %23

23:                                               ; preds = %2
  br label %24

24:                                               ; preds = %23
  %25 = load ptr, ptr %6, align 8
  %26 = getelementptr inbounds nuw %struct.http_context_t, ptr %25, i32 0, i32 2
  %27 = load ptr, ptr %26, align 8
  %28 = icmp ne ptr %27, null
  br i1 %28, label %29, label %33

29:                                               ; preds = %24
  %30 = load ptr, ptr %6, align 8
  %31 = getelementptr inbounds nuw %struct.http_context_t, ptr %30, i32 0, i32 2
  %32 = load ptr, ptr %31, align 8
  call void @rest_auth_g_free(ptr noundef %32)
  br label %33

33:                                               ; preds = %29, %24
  %34 = load ptr, ptr %6, align 8
  %35 = getelementptr inbounds nuw %struct.http_context_t, ptr %34, i32 0, i32 2
  store ptr null, ptr %35, align 8
  br label %36

36:                                               ; preds = %33
  br label %37

37:                                               ; preds = %36
  br label %38

38:                                               ; preds = %37
  %39 = load i64, ptr getelementptr inbounds nuw (%struct.slurm_conf_t, ptr @slurm_conf, i32 0, i32 42), align 8
  %40 = and i64 %39, 1024
  %41 = icmp ne i64 %40, 0
  br i1 %41, label %42, label %52

42:                                               ; preds = %38
  br label %43

43:                                               ; preds = %42
  %44 = call i32 @get_log_level()
  %45 = icmp sge i32 %44, 4
  br i1 %45, label %46, label %49

46:                                               ; preds = %43
  %47 = load ptr, ptr %4, align 8
  %48 = call ptr @conmgr_fd_get_name(ptr noundef %47)
  call void (i32, ptr, ...) @log_var(i32 noundef 4, ptr noundef @.str.8, ptr noundef @__func__.parse_http, ptr noundef %48)
  br label %49

49:                                               ; preds = %46, %43
  br label %50

50:                                               ; preds = %49
  br label %51

51:                                               ; preds = %50
  br label %52

52:                                               ; preds = %51, %38
  br label %53

53:                                               ; preds = %52
  br label %54

54:                                               ; preds = %53
  store i32 1000, ptr %3, align 4
  store i32 1, ptr %13, align 4
  br label %195

55:                                               ; preds = %2
  %56 = load ptr, ptr %8, align 8
  %57 = getelementptr inbounds nuw %struct.request_t, ptr %56, i32 0, i32 8
  %58 = load ptr, ptr %57, align 8
  %59 = icmp ne ptr %58, null
  br i1 %59, label %60, label %61

60:                                               ; preds = %55
  br label %61

61:                                               ; preds = %60, %55
  %62 = load ptr, ptr %6, align 8
  %63 = load ptr, ptr %8, align 8
  %64 = getelementptr inbounds nuw %struct.request_t, ptr %63, i32 0, i32 8
  store ptr %62, ptr %64, align 8
  br label %65

65:                                               ; preds = %61
  %66 = load ptr, ptr %6, align 8
  %67 = getelementptr inbounds nuw %struct.http_context_t, ptr %66, i32 0, i32 2
  %68 = load ptr, ptr %67, align 8
  %69 = icmp ne ptr %68, null
  br i1 %69, label %70, label %74

70:                                               ; preds = %65
  %71 = load ptr, ptr %6, align 8
  %72 = getelementptr inbounds nuw %struct.http_context_t, ptr %71, i32 0, i32 2
  %73 = load ptr, ptr %72, align 8
  call void @rest_auth_g_free(ptr noundef %73)
  br label %74

74:                                               ; preds = %70, %65
  %75 = load ptr, ptr %6, align 8
  %76 = getelementptr inbounds nuw %struct.http_context_t, ptr %75, i32 0, i32 2
  store ptr null, ptr %76, align 8
  br label %77

77:                                               ; preds = %74
  br label %78

78:                                               ; preds = %77
  %79 = load ptr, ptr %8, align 8
  %80 = load ptr, ptr %9, align 8
  %81 = getelementptr inbounds nuw %struct.http_parser, ptr %80, i32 0, i32 6
  store ptr %79, ptr %81, align 8
  br label %82

82:                                               ; preds = %78
  %83 = load i64, ptr getelementptr inbounds nuw (%struct.slurm_conf_t, ptr @slurm_conf, i32 0, i32 42), align 8
  %84 = and i64 %83, 1024
  %85 = icmp ne i64 %84, 0
  br i1 %85, label %86, label %96

86:                                               ; preds = %82
  br label %87

87:                                               ; preds = %86
  %88 = call i32 @get_log_level()
  %89 = icmp sge i32 %88, 4
  br i1 %89, label %90, label %93

90:                                               ; preds = %87
  %91 = load ptr, ptr %4, align 8
  %92 = call ptr @conmgr_fd_get_name(ptr noundef %91)
  call void (i32, ptr, ...) @log_var(i32 noundef 4, ptr noundef @.str.9, ptr noundef @__func__.parse_http, ptr noundef %92)
  br label %93

93:                                               ; preds = %90, %87
  br label %94

94:                                               ; preds = %93
  br label %95

95:                                               ; preds = %94
  br label %96

96:                                               ; preds = %95, %82
  br label %97

97:                                               ; preds = %96
  br label %98

98:                                               ; preds = %97
  %99 = load ptr, ptr %4, align 8
  call void @conmgr_fd_get_in_buffer(ptr noundef %99, ptr noundef %12, ptr noundef %11)
  %100 = load ptr, ptr %9, align 8
  %101 = load ptr, ptr %12, align 8
  %102 = load i64, ptr %11, align 8
  %103 = call i64 @http_parser_execute(ptr noundef %100, ptr noundef @parse_http.settings, ptr noundef %101, i64 noundef %102)
  store i64 %103, ptr %10, align 8
  br label %104

104:                                              ; preds = %98
  %105 = load i64, ptr getelementptr inbounds nuw (%struct.slurm_conf_t, ptr @slurm_conf, i32 0, i32 42), align 8
  %106 = and i64 %105, 1024
  %107 = icmp ne i64 %106, 0
  br i1 %107, label %108, label %120

108:                                              ; preds = %104
  br label %109

109:                                              ; preds = %108
  %110 = call i32 @get_log_level()
  %111 = icmp sge i32 %110, 4
  br i1 %111, label %112, label %117

112:                                              ; preds = %109
  %113 = load ptr, ptr %4, align 8
  %114 = call ptr @conmgr_fd_get_name(ptr noundef %113)
  %115 = load i64, ptr %10, align 8
  %116 = load i64, ptr %11, align 8
  call void (i32, ptr, ...) @log_var(i32 noundef 4, ptr noundef @.str.10, ptr noundef @__func__.parse_http, ptr noundef %114, i64 noundef %115, i64 noundef %116)
  br label %117

117:                                              ; preds = %112, %109
  br label %118

118:                                              ; preds = %117
  br label %119

119:                                              ; preds = %118
  br label %120

120:                                              ; preds = %119, %104
  br label %121

121:                                              ; preds = %120
  br label %122

122:                                              ; preds = %121
  %123 = load i64, ptr %10, align 8
  %124 = icmp ugt i64 %123, 0
  br i1 %124, label %125, label %128

125:                                              ; preds = %122
  %126 = load ptr, ptr %4, align 8
  %127 = load i64, ptr %10, align 8
  call void @conmgr_fd_mark_consumed_in_buffer(ptr noundef %126, i64 noundef %127)
  br label %179

128:                                              ; preds = %122
  %129 = load ptr, ptr %9, align 8
  %130 = getelementptr inbounds nuw %struct.http_parser, ptr %129, i32 0, i32 5
  %131 = load i32, ptr %130, align 4
  %132 = lshr i32 %131, 24
  %133 = and i32 %132, 127
  %134 = icmp ne i32 %133, 0
  br i1 %134, label %135, label %153

135:                                              ; preds = %128
  %136 = load ptr, ptr %4, align 8
  %137 = call ptr @conmgr_fd_get_name(ptr noundef %136)
  %138 = load ptr, ptr %9, align 8
  %139 = getelementptr inbounds nuw %struct.http_parser, ptr %138, i32 0, i32 5
  %140 = load i32, ptr %139, align 4
  %141 = lshr i32 %140, 24
  %142 = and i32 %141, 127
  %143 = call ptr @http_errno_name(i32 noundef %142)
  %144 = load ptr, ptr %9, align 8
  %145 = getelementptr inbounds nuw %struct.http_parser, ptr %144, i32 0, i32 5
  %146 = load i32, ptr %145, align 4
  %147 = lshr i32 %146, 24
  %148 = and i32 %147, 127
  %149 = call ptr @http_errno_description(i32 noundef %148)
  %150 = call i32 (ptr, ...) @error(ptr noundef @.str.11, ptr noundef @__func__.parse_http, ptr noundef %137, ptr noundef %143, ptr noundef %149)
  %151 = load ptr, ptr %9, align 8
  %152 = call i32 @_send_reject(ptr noundef %151, i32 noundef 400)
  store i32 %152, ptr %7, align 4
  br label %178

153:                                              ; preds = %128
  %154 = load ptr, ptr %9, align 8
  %155 = getelementptr inbounds nuw %struct.http_parser, ptr %154, i32 0, i32 5
  %156 = load i32, ptr %155, align 4
  %157 = lshr i32 %156, 31
  %158 = icmp ne i32 %157, 0
  br i1 %158, label %159, label %177

159:                                              ; preds = %153
  br label %160

160:                                              ; preds = %159
  %161 = load i64, ptr getelementptr inbounds nuw (%struct.slurm_conf_t, ptr @slurm_conf, i32 0, i32 42), align 8
  %162 = and i64 %161, 1024
  %163 = icmp ne i64 %162, 0
  br i1 %163, label %164, label %174

164:                                              ; preds = %160
  br label %165

165:                                              ; preds = %164
  %166 = call i32 @get_log_level()
  %167 = icmp sge i32 %166, 4
  br i1 %167, label %168, label %171

168:                                              ; preds = %165
  %169 = load ptr, ptr %4, align 8
  %170 = call ptr @conmgr_fd_get_name(ptr noundef %169)
  call void (i32, ptr, ...) @log_var(i32 noundef 4, ptr noundef @.str.12, ptr noundef @__func__.parse_http, ptr noundef %170)
  br label %171

171:                                              ; preds = %168, %165
  br label %172

172:                                              ; preds = %171
  br label %173

173:                                              ; preds = %172
  br label %174

174:                                              ; preds = %173, %160
  br label %175

175:                                              ; preds = %174
  br label %176

176:                                              ; preds = %175
  store i32 1000, ptr %7, align 4
  br label %177

177:                                              ; preds = %176, %153
  br label %178

178:                                              ; preds = %177, %135
  br label %179

179:                                              ; preds = %178, %125
  br label %180

180:                                              ; preds = %179
  %181 = load ptr, ptr %6, align 8
  %182 = getelementptr inbounds nuw %struct.http_context_t, ptr %181, i32 0, i32 2
  %183 = load ptr, ptr %182, align 8
  %184 = icmp ne ptr %183, null
  br i1 %184, label %185, label %189

185:                                              ; preds = %180
  %186 = load ptr, ptr %6, align 8
  %187 = getelementptr inbounds nuw %struct.http_context_t, ptr %186, i32 0, i32 2
  %188 = load ptr, ptr %187, align 8
  call void @rest_auth_g_free(ptr noundef %188)
  br label %189

189:                                              ; preds = %185, %180
  %190 = load ptr, ptr %6, align 8
  %191 = getelementptr inbounds nuw %struct.http_context_t, ptr %190, i32 0, i32 2
  store ptr null, ptr %191, align 8
  br label %192

192:                                              ; preds = %189
  br label %193

193:                                              ; preds = %192
  %194 = load i32, ptr %7, align 4
  store i32 %194, ptr %3, align 4
  store i32 1, ptr %13, align 4
  br label %195

195:                                              ; preds = %193, %54
  call void @llvm.lifetime.end.p0(i64 8, ptr %12) #8
  call void @llvm.lifetime.end.p0(i64 8, ptr %11) #8
  call void @llvm.lifetime.end.p0(i64 8, ptr %10) #8
  call void @llvm.lifetime.end.p0(i64 8, ptr %9) #8
  call void @llvm.lifetime.end.p0(i64 8, ptr %8) #8
  call void @llvm.lifetime.end.p0(i64 4, ptr %7) #8
  call void @llvm.lifetime.end.p0(i64 8, ptr %6) #8
  %196 = load i32, ptr %3, align 4
  ret i32 %196
}