; Function Attrs: nounwind uwtable
define dso_local range(i32 0, 1001) i32 @parse_http(ptr noundef %0, ptr noundef %1) local_unnamed_addr #0 {
  %3 = alloca i64, align 8
  %4 = alloca ptr, align 8
  %5 = getelementptr inbounds nuw i8, ptr %1, i64 40
  %6 = load ptr, ptr %5, align 8
  %7 = getelementptr inbounds nuw i8, ptr %1, i64 32
  %8 = load ptr, ptr %7, align 8
  call void @llvm.lifetime.start.p0(i64 8, ptr nonnull %3) #8
  call void @llvm.lifetime.start.p0(i64 8, ptr nonnull %4) #8
  %.not = icmp eq ptr %6, null
  br i1 %.not, label %9, label %21

9:                                                ; preds = %2
  %10 = getelementptr inbounds nuw i8, ptr %1, i64 16
  %11 = load ptr, ptr %10, align 8
  %.not41 = icmp eq ptr %11, null
  br i1 %.not41, label %13, label %12

12:                                               ; preds = %9
  tail call void @rest_auth_g_free(ptr noundef nonnull %11) #8
  br label %13

13:                                               ; preds = %12, %9
  store ptr null, ptr %10, align 8
  %14 = load i64, ptr getelementptr inbounds nuw (i8, ptr @slurm_conf, i64 320), align 8
  %15 = and i64 %14, 1024
  %.not42 = icmp eq i64 %15, 0
  br i1 %.not42, label %77, label %16

16:                                               ; preds = %13
  %17 = tail call i32 @get_log_level() #8
  %18 = icmp sgt i32 %17, 3
  br i1 %18, label %19, label %77

19:                                               ; preds = %16
  %20 = tail call ptr @conmgr_fd_get_name(ptr noundef %0) #8
  tail call void (i32, ptr, ...) @log_var(i32 noundef 4, ptr noundef nonnull @.str.8, ptr noundef nonnull @__func__.parse_http, ptr noundef %20) #8
  br label %77

21:                                               ; preds = %2
  %22 = getelementptr inbounds nuw i8, ptr %6, i64 56
  store ptr %1, ptr %22, align 8
  %23 = getelementptr inbounds nuw i8, ptr %1, i64 16
  %24 = load ptr, ptr %23, align 8
  %.not43 = icmp eq ptr %24, null
  br i1 %.not43, label %26, label %25

25:                                               ; preds = %21
  tail call void @rest_auth_g_free(ptr noundef nonnull %24) #8
  br label %26

26:                                               ; preds = %25, %21
  store ptr null, ptr %23, align 8
  %27 = getelementptr inbounds nuw i8, ptr %8, i64 24
  store ptr %6, ptr %27, align 8
  %28 = load i64, ptr getelementptr inbounds nuw (i8, ptr @slurm_conf, i64 320), align 8
  %29 = and i64 %28, 1024
  %.not44 = icmp eq i64 %29, 0
  br i1 %.not44, label %35, label %30

30:                                               ; preds = %26
  %31 = tail call i32 @get_log_level() #8
  %32 = icmp sgt i32 %31, 3
  br i1 %32, label %33, label %35

33:                                               ; preds = %30
  %34 = tail call ptr @conmgr_fd_get_name(ptr noundef %0) #8
  tail call void (i32, ptr, ...) @log_var(i32 noundef 4, ptr noundef nonnull @.str.9, ptr noundef nonnull @__func__.parse_http, ptr noundef %34) #8
  br label %35

35:                                               ; preds = %30, %33, %26
  call void @conmgr_fd_get_in_buffer(ptr noundef %0, ptr noundef nonnull %4, ptr noundef nonnull %3) #8
  %36 = load ptr, ptr %4, align 8
  %37 = load i64, ptr %3, align 8
  %38 = call i64 @http_parser_execute(ptr noundef nonnull %8, ptr noundef nonnull @parse_http.settings, ptr noundef %36, i64 noundef %37) #8
  %39 = load i64, ptr getelementptr inbounds nuw (i8, ptr @slurm_conf, i64 320), align 8
  %40 = and i64 %39, 1024
  %.not45 = icmp eq i64 %40, 0
  br i1 %.not45, label %47, label %41

41:                                               ; preds = %35
  %42 = call i32 @get_log_level() #8
  %43 = icmp sgt i32 %42, 3
  br i1 %43, label %44, label %47

44:                                               ; preds = %41
  %45 = call ptr @conmgr_fd_get_name(ptr noundef %0) #8
  %46 = load i64, ptr %3, align 8
  call void (i32, ptr, ...) @log_var(i32 noundef 4, ptr noundef nonnull @.str.10, ptr noundef nonnull @__func__.parse_http, ptr noundef %45, i64 noundef %38, i64 noundef %46) #8
  br label %47

47:                                               ; preds = %41, %44, %35
  %.not46 = icmp eq i64 %38, 0
  br i1 %.not46, label %49, label %48

48:                                               ; preds = %47
  call void @conmgr_fd_mark_consumed_in_buffer(ptr noundef %0, i64 noundef %38) #8
  br label %73

49:                                               ; preds = %47
  %50 = getelementptr inbounds nuw i8, ptr %8, i64 20
  %51 = load i32, ptr %50, align 4
  %52 = and i32 %51, 2130706432
  %.not47 = icmp eq i32 %52, 0
  br i1 %.not47, label %64, label %53

53:                                               ; preds = %49
  %54 = call ptr @conmgr_fd_get_name(ptr noundef %0) #8
  %55 = load i32, ptr %50, align 4
  %56 = lshr i32 %55, 24
  %57 = and i32 %56, 127
  %58 = call ptr @http_errno_name(i32 noundef %57) #8
  %59 = load i32, ptr %50, align 4
  %60 = lshr i32 %59, 24
  %61 = and i32 %60, 127
  %62 = call ptr @http_errno_description(i32 noundef %61) #8
  %63 = call i32 (ptr, ...) @error(ptr noundef nonnull @.str.11, ptr noundef nonnull @__func__.parse_http, ptr noundef %54, ptr noundef %58, ptr noundef %62) #8
  call fastcc void @_send_reject(ptr noundef nonnull %8, i32 noundef 400)
  br label %73

64:                                               ; preds = %49
  %.not48 = icmp sgt i32 %51, -1
  br i1 %.not48, label %73, label %65

65:                                               ; preds = %64
  %66 = load i64, ptr getelementptr inbounds nuw (i8, ptr @slurm_conf, i64 320), align 8
  %67 = and i64 %66, 1024
  %.not49 = icmp eq i64 %67, 0
  br i1 %.not49, label %73, label %68

68:                                               ; preds = %65
  %69 = call i32 @get_log_level() #8
  %70 = icmp sgt i32 %69, 3
  br i1 %70, label %71, label %73

71:                                               ; preds = %68
  %72 = call ptr @conmgr_fd_get_name(ptr noundef %0) #8
  call void (i32, ptr, ...) @log_var(i32 noundef 4, ptr noundef nonnull @.str.12, ptr noundef nonnull @__func__.parse_http, ptr noundef %72) #8
  br label %73

73:                                               ; preds = %65, %71, %68, %48, %64, %53
  %.035 = phi i32 [ 0, %48 ], [ 1, %53 ], [ 0, %64 ], [ 1000, %68 ], [ 1000, %71 ], [ 1000, %65 ]
  %74 = load ptr, ptr %23, align 8
  %.not50 = icmp eq ptr %74, null
  br i1 %.not50, label %76, label %75

75:                                               ; preds = %73
  call void @rest_auth_g_free(ptr noundef nonnull %74) #8
  br label %76

76:                                               ; preds = %75, %73
  store ptr null, ptr %23, align 8
  br label %77

77:                                               ; preds = %13, %19, %16, %76
  %.0 = phi i32 [ %.035, %76 ], [ 1000, %16 ], [ 1000, %19 ], [ 1000, %13 ]
  call void @llvm.lifetime.end.p0(i64 8, ptr nonnull %4) #8
  call void @llvm.lifetime.end.p0(i64 8, ptr nonnull %3) #8
  ret i32 %.0
}